target datalayout = "e-m:e-p270:32:32-p271:32:32-p272:64:64-i64:64-i128:128-f80:128-n8:16:32:64-S128"
target triple = "x86_64-pc-linux-gnu"

%struct.jpeg_decompress_struct = type { ptr, ptr, ptr, ptr, i32, i32, ptr, i32, i32, i32, i32, i32, i32, i32, double, i32, i32, i32, i32, i32, i32, i32, i32, i32, i32, i32, i32, i32, i32, i32, i32, i32, i32, ptr, i32, i32, i32, i32, i32, ptr, [4 x ptr], [4 x ptr], [4 x ptr], i32, ptr, i32, i32, [16 x i8], [16 x i8], [16 x i8], i32, i32, i8, i8, i8, i16, i16, i32, i8, i32, ptr, i32, i32, i32, i32, ptr, i32, [4 x ptr], i32, i32, i32, [10 x i32], i32, i32, i32, i32, i32, ptr, ptr, ptr, ptr, ptr, ptr, ptr, ptr, ptr, ptr, ptr }
%struct.my_upsampler = type { %struct.jpeg_upsampler, ptr, ptr, ptr, ptr, ptr, ptr, i32, i32, i32 }
%struct.jpeg_upsampler = type { ptr, ptr, i32 }

; Function Attrs: nounwind uwtable
define internal void @merged_2v_upsample(ptr noundef %0, ptr noundef %1, ptr noundef %2, i32 noundef %3, ptr noundef %4, ptr noundef %5, i32 noundef %6) #0 {
  %8 = alloca ptr, align 8
  %9 = alloca ptr, align 8
  %10 = alloca ptr, align 8
  %11 = alloca i32, align 4
  %12 = alloca ptr, align 8
  %13 = alloca ptr, align 8
  %14 = alloca i32, align 4
  %15 = alloca ptr, align 8
  %16 = alloca [2 x ptr], align 16
  %17 = alloca i32, align 4
  store ptr %0, ptr %8, align 8
  store ptr %1, ptr %9, align 8
  store ptr %2, ptr %10, align 8
  store i32 %3, ptr %11, align 4
  store ptr %4, ptr %12, align 8
  store ptr %5, ptr %13, align 8
  store i32 %6, ptr %14, align 4
  %18 = load ptr, ptr %8, align 8
  %19 = getelementptr inbounds %struct.jpeg_decompress_struct, ptr %18, i32 0, i32 85
  %20 = load ptr, ptr %19, align 8
  store ptr %20, ptr %15, align 8
  %21 = load ptr, ptr %15, align 8
  %22 = getelementptr inbounds %struct.my_upsampler, ptr %21, i32 0, i32 7
  %23 = load i32, ptr %22, align 8
  %24 = icmp ne i32 %23, 0
  br i1 %24, label %25, label %38

25:                                               ; preds = %7
  %26 = load ptr, ptr %15, align 8
  %27 = getelementptr inbounds %struct.my_upsampler, ptr %26, i32 0, i32 6
  %28 = load ptr, ptr %12, align 8
  %29 = load ptr, ptr %13, align 8
  %30 = load i32, ptr %29, align 4
  %31 = zext i32 %30 to i64
  %32 = getelementptr inbounds ptr, ptr %28, i64 %31
  %33 = load ptr, ptr %15, align 8
  %34 = getelementptr inbounds %struct.my_upsampler, ptr %33, i32 0, i32 8
  %35 = load i32, ptr %34, align 4
  call void @jCopySamples(ptr noundef %27, i32 noundef 0, ptr noundef %32, i32 noundef 0, i32 noundef 1, i32 noundef %35)
  store i32 1, ptr %17, align 4
  %36 = load ptr, ptr %15, align 8
  %37 = getelementptr inbounds %struct.my_upsampler, ptr %36, i32 0, i32 7
  store i32 0, ptr %37, align 8
  br label %93

38:                                               ; preds = %7
  store i32 2, ptr %17, align 4
  %39 = load i32, ptr %17, align 4
  %40 = load ptr, ptr %15, align 8
  %41 = getelementptr inbounds %struct.my_upsampler, ptr %40, i32 0, i32 9
  %42 = load i32, ptr %41, align 8
  %43 = icmp ugt i32 %39, %42
  br i1 %43, label %44, label %48

44:                                               ; preds = %38
  %45 = load ptr, ptr %15, align 8
  %46 = getelementptr inbounds %struct.my_upsampler, ptr %45, i32 0, i32 9
  %47 = load i32, ptr %46, align 8
  store i32 %47, ptr %17, align 4
  br label %48

48:                                               ; preds = %44, %38
  %49 = load ptr, ptr %13, align 8
  %50 = load i32, ptr %49, align 4
  %51 = load i32, ptr %14, align 4
  %52 = sub i32 %51, %50
  store i32 %52, ptr %14, align 4
  %53 = load i32, ptr %17, align 4
  %54 = load i32, ptr %14, align 4
  %55 = icmp ugt i32 %53, %54
  br i1 %55, label %56, label %58

56:                                               ; preds = %48
  %57 = load i32, ptr %14, align 4
  store i32 %57, ptr %17, align 4
  br label %58

58:                                               ; preds = %56, %48
  %59 = load ptr, ptr %12, align 8
  %60 = load ptr, ptr %13, align 8
  %61 = load i32, ptr %60, align 4
  %62 = zext i32 %61 to i64
  %63 = getelementptr inbounds ptr, ptr %59, i64 %62
  %64 = load ptr, ptr %63, align 8
  %65 = getelementptr inbounds [2 x ptr], ptr %16, i64 0, i64 0
  store ptr %64, ptr %65, align 16
  %66 = load i32, ptr %17, align 4
  %67 = icmp ugt i32 %66, 1
  br i1 %67, label %68, label %77

68:                                               ; preds = %58
  %69 = load ptr, ptr %12, align 8
  %70 = load ptr, ptr %13, align 8
  %71 = load i32, ptr %70, align 4
  %72 = add i32 %71, 1
  %73 = zext i32 %72 to i64
  %74 = getelementptr inbounds ptr, ptr %69, i64 %73
  %75 = load ptr, ptr %74, align 8
  %76 = getelementptr inbounds [2 x ptr], ptr %16, i64 0, i64 1
  store ptr %75, ptr %76, align 8
  br label %84

77:                                               ; preds = %58
  %78 = load ptr, ptr %15, align 8
  %79 = getelementptr inbounds %struct.my_upsampler, ptr %78, i32 0, i32 6
  %80 = load ptr, ptr %79, align 8
  %81 = getelementptr inbounds [2 x ptr], ptr %16, i64 0, i64 1
  store ptr %80, ptr %81, align 8
  %82 = load ptr, ptr %15, align 8
  %83 = getelementptr inbounds %struct.my_upsampler, ptr %82, i32 0, i32 7
  store i32 1, ptr %83, align 8
  br label %84

84:                                               ; preds = %77, %68
  %85 = load ptr, ptr %15, align 8
  %86 = getelementptr inbounds %struct.my_upsampler, ptr %85, i32 0, i32 1
  %87 = load ptr, ptr %86, align 8
  %88 = load ptr, ptr %8, align 8
  %89 = load ptr, ptr %9, align 8
  %90 = load ptr, ptr %10, align 8
  %91 = load i32, ptr %90, align 4
  %92 = getelementptr inbounds [2 x ptr], ptr %16, i64 0, i64 0
  call void %87(ptr noundef %88, ptr noundef %89, i32 noundef %91, ptr noundef %92)
  br label %93

93:                                               ; preds = %84, %25
  %94 = load i32, ptr %17, align 4
  %95 = load ptr, ptr %13, align 8
  %96 = load i32, ptr %95, align 4
  %97 = add i32 %96, %94
  store i32 %97, ptr %95, align 4
  %98 = load i32, ptr %17, align 4
  %99 = load ptr, ptr %15, align 8
  %100 = getelementptr inbounds %struct.my_upsampler, ptr %99, i32 0, i32 9
  %101 = load i32, ptr %100, align 8
  %102 = sub i32 %101, %98
  store i32 %102, ptr %100, align 8
  %103 = load ptr, ptr %15, align 8
  %104 = getelementptr inbounds %struct.my_upsampler, ptr %103, i32 0, i32 7
  %105 = load i32, ptr %104, align 8
  %106 = icmp ne i32 %105, 0
  br i1 %106, label %111, label %107

107:                                              ; preds = %93
  %108 = load ptr, ptr %10, align 8
  %109 = load i32, ptr %108, align 4
  %110 = add i32 %109, 1
  store i32 %110, ptr %108, align 4
  br label %111

111:                                              ; preds = %107, %93
  ret void
}