; Function Attrs: nounwind uwtable
define internal void @merged_2v_upsample(ptr noundef %0, ptr noundef %1, ptr nocapture noundef %2, i32 %3, ptr noundef %4, ptr nocapture noundef %5, i32 noundef %6) #0 {
  %8 = alloca [2 x ptr], align 16
  %9 = getelementptr inbounds i8, ptr %0, i64 608
  %10 = load ptr, ptr %9, align 8
  %11 = getelementptr inbounds i8, ptr %10, i64 72
  %12 = load i32, ptr %11, align 8
  %.not = icmp eq i32 %12, 0
  br i1 %.not, label %20, label %13

13:                                               ; preds = %7
  %14 = getelementptr inbounds i8, ptr %10, i64 64
  %15 = load i32, ptr %5, align 4
  %16 = zext i32 %15 to i64
  %17 = getelementptr inbounds ptr, ptr %4, i64 %16
  %18 = getelementptr inbounds i8, ptr %10, i64 76
  %19 = load i32, ptr %18, align 4
  tail call void @jCopySamples(ptr noundef nonnull %14, i32 noundef 0, ptr noundef %17, i32 noundef 0, i32 noundef 1, i32 noundef %19) #5
  store i32 0, ptr %11, align 8
  br label %42

20:                                               ; preds = %7
  %21 = getelementptr inbounds i8, ptr %10, i64 80
  %22 = load i32, ptr %21, align 8
  %23 = load i32, ptr %5, align 4
  %24 = sub i32 %6, %23
  %spec.select = tail call i32 @llvm.umin.i32(i32 %22, i32 %24)
  %.1 = tail call i32 @llvm.umin.i32(i32 %spec.select, i32 2)
  %25 = zext i32 %23 to i64
  %26 = getelementptr inbounds ptr, ptr %4, i64 %25
  %27 = load ptr, ptr %26, align 8
  store ptr %27, ptr %8, align 16
  %28 = icmp ugt i32 %spec.select, 1
  br i1 %28, label %29, label %34

29:                                               ; preds = %20
  %30 = add i32 %23, 1
  %31 = zext i32 %30 to i64
  %32 = getelementptr inbounds ptr, ptr %4, i64 %31
  %33 = load ptr, ptr %32, align 8
  br label %37

34:                                               ; preds = %20
  %35 = getelementptr inbounds i8, ptr %10, i64 64
  %36 = load ptr, ptr %35, align 8
  store i32 1, ptr %11, align 8
  br label %37

37:                                               ; preds = %34, %29
  %.sink = phi ptr [ %33, %29 ], [ %36, %34 ]
  %38 = getelementptr inbounds i8, ptr %8, i64 8
  store ptr %.sink, ptr %38, align 8
  %39 = getelementptr inbounds i8, ptr %10, i64 24
  %40 = load ptr, ptr %39, align 8
  %41 = load i32, ptr %2, align 4
  call void %40(ptr noundef nonnull %0, ptr noundef %1, i32 noundef %41, ptr noundef nonnull %8) #5
  br label %42

42:                                               ; preds = %37, %13
  %.2 = phi i32 [ 1, %13 ], [ %.1, %37 ]
  %43 = load i32, ptr %5, align 4
  %44 = add i32 %43, %.2
  store i32 %44, ptr %5, align 4
  %45 = getelementptr inbounds i8, ptr %10, i64 80
  %46 = load i32, ptr %45, align 8
  %47 = sub i32 %46, %.2
  store i32 %47, ptr %45, align 8
  %48 = load i32, ptr %11, align 8
  %.not33 = icmp eq i32 %48, 0
  br i1 %.not33, label %49, label %52

49:                                               ; preds = %42
  %50 = load i32, ptr %2, align 4
  %51 = add i32 %50, 1
  store i32 %51, ptr %2, align 4
  br label %52

52:                                               ; preds = %49, %42
  ret void
}